target datalayout = "e-m:e-p270:32:32-p271:32:32-p272:64:64-i64:64-i128:128-f80:128-n8:16:32:64-S128"
target triple = "x86_64-pc-linux-gnu"

%struct.proxy_hwm_cfg_t = type { ptr, i32, [4 x ptr], [4 x ptr], ptr }

; Function Attrs: mustprogress uwtable
define internal void @_ZL17proxy_thread_mainPv(ptr noundef %0) #0 {
  %2 = alloca ptr, align 8
  %3 = alloca ptr, align 8
  %4 = alloca i32, align 4
  %5 = alloca ptr, align 8
  %6 = alloca i32, align 4
  %7 = alloca ptr, align 8
  %8 = alloca ptr, align 8
  %9 = alloca i32, align 4
  %10 = alloca i32, align 4
  %11 = alloca ptr, align 8
  %12 = alloca ptr, align 8
  store ptr %0, ptr %2, align 8, !tbaa !12
  call void @llvm.lifetime.start.p0(i64 8, ptr %3) #9
  %13 = load ptr, ptr %2, align 8, !tbaa !12
  store ptr %13, ptr %3, align 8, !tbaa !12
  call void @llvm.lifetime.start.p0(i64 4, ptr %4) #9
  call void @llvm.lifetime.start.p0(i64 8, ptr %5) #9
  %14 = load ptr, ptr %3, align 8, !tbaa !12
  %15 = getelementptr inbounds nuw %struct.proxy_hwm_cfg_t, ptr %14, i32 0, i32 0
  %16 = load ptr, ptr %15, align 8, !tbaa !13
  %17 = call ptr @zmq_socket(ptr noundef %16, i32 noundef 10)
  store ptr %17, ptr %5, align 8, !tbaa !12
  %18 = load ptr, ptr %5, align 8, !tbaa !12
  call void @_ZL7set_hwmPv(ptr noundef %18)
  call void @llvm.lifetime.start.p0(i64 4, ptr %6) #9
  store i32 0, ptr %6, align 4, !tbaa !4
  br label %19

19:                                               ; preds = %41, %1
  %20 = load i32, ptr %6, align 4, !tbaa !4
  %21 = zext i32 %20 to i64
  %22 = icmp ult i64 %21, 4
  br i1 %22, label %24, label %23

23:                                               ; preds = %19
  call void @llvm.lifetime.end.p0(i64 4, ptr %6) #9
  br label %44

24:                                               ; preds = %19
  call void @llvm.lifetime.start.p0(i64 8, ptr %7) #9
  %25 = load ptr, ptr %3, align 8, !tbaa !12
  %26 = getelementptr inbounds nuw %struct.proxy_hwm_cfg_t, ptr %25, i32 0, i32 2
  %27 = load i32, ptr %6, align 4, !tbaa !4
  %28 = zext i32 %27 to i64
  %29 = getelementptr inbounds nuw [4 x ptr], ptr %26, i64 0, i64 %28
  %30 = load ptr, ptr %29, align 8, !tbaa !8
  store ptr %30, ptr %7, align 8, !tbaa !8
  %31 = load ptr, ptr %7, align 8, !tbaa !8
  %32 = icmp ne ptr %31, null
  br i1 %32, label %33, label %40

33:                                               ; preds = %24
  %34 = load ptr, ptr %5, align 8, !tbaa !12
  %35 = load ptr, ptr %7, align 8, !tbaa !8
  %36 = call i32 @zmq_bind(ptr noundef %34, ptr noundef %35)
  store i32 %36, ptr %4, align 4, !tbaa !4
  br label %37

37:                                               ; preds = %33
  br label %38

38:                                               ; preds = %37
  br label %39

39:                                               ; preds = %38
  br label %40

40:                                               ; preds = %39, %24
  call void @llvm.lifetime.end.p0(i64 8, ptr %7) #9
  br label %41

41:                                               ; preds = %40
  %42 = load i32, ptr %6, align 4, !tbaa !4
  %43 = add i32 %42, 1
  store i32 %43, ptr %6, align 4, !tbaa !4
  br label %19, !llvm.loop !25

44:                                               ; preds = %23
  call void @llvm.lifetime.start.p0(i64 8, ptr %8) #9
  %45 = load ptr, ptr %3, align 8, !tbaa !12
  %46 = getelementptr inbounds nuw %struct.proxy_hwm_cfg_t, ptr %45, i32 0, i32 0
  %47 = load ptr, ptr %46, align 8, !tbaa !13
  %48 = call ptr @zmq_socket(ptr noundef %47, i32 noundef 9)
  store ptr %48, ptr %8, align 8, !tbaa !12
  call void @llvm.lifetime.start.p0(i64 4, ptr %9) #9
  store i32 1, ptr %9, align 4, !tbaa !4
  %49 = load ptr, ptr %8, align 8, !tbaa !12
  %50 = call i32 @zmq_setsockopt(ptr noundef %49, i32 noundef 69, ptr noundef %9, i64 noundef 4)
  store i32 %50, ptr %4, align 4, !tbaa !4
  br label %51

51:                                               ; preds = %44
  br label %52

52:                                               ; preds = %51
  br label %53

53:                                               ; preds = %52
  %54 = load ptr, ptr %8, align 8, !tbaa !12
  call void @_ZL7set_hwmPv(ptr noundef %54)
  call void @llvm.lifetime.start.p0(i64 4, ptr %10) #9
  store i32 0, ptr %10, align 4, !tbaa !4
  br label %55

55:                                               ; preds = %77, %53
  %56 = load i32, ptr %10, align 4, !tbaa !4
  %57 = zext i32 %56 to i64
  %58 = icmp ult i64 %57, 4
  br i1 %58, label %60, label %59

59:                                               ; preds = %55
  call void @llvm.lifetime.end.p0(i64 4, ptr %10) #9
  br label %80

60:                                               ; preds = %55
  call void @llvm.lifetime.start.p0(i64 8, ptr %11) #9
  %61 = load ptr, ptr %3, align 8, !tbaa !12
  %62 = getelementptr inbounds nuw %struct.proxy_hwm_cfg_t, ptr %61, i32 0, i32 3
  %63 = load i32, ptr %10, align 4, !tbaa !4
  %64 = zext i32 %63 to i64
  %65 = getelementptr inbounds nuw [4 x ptr], ptr %62, i64 0, i64 %64
  %66 = load ptr, ptr %65, align 8, !tbaa !8
  store ptr %66, ptr %11, align 8, !tbaa !8
  %67 = load ptr, ptr %11, align 8, !tbaa !8
  %68 = icmp ne ptr %67, null
  br i1 %68, label %69, label %76

69:                                               ; preds = %60
  %70 = load ptr, ptr %8, align 8, !tbaa !12
  %71 = load ptr, ptr %11, align 8, !tbaa !8
  %72 = call i32 @zmq_bind(ptr noundef %70, ptr noundef %71)
  store i32 %72, ptr %4, align 4, !tbaa !4
  br label %73

73:                                               ; preds = %69
  br label %74

74:                                               ; preds = %73
  br label %75

75:                                               ; preds = %74
  br label %76

76:                                               ; preds = %75, %60
  call void @llvm.lifetime.end.p0(i64 8, ptr %11) #9
  br label %77

77:                                               ; preds = %76
  %78 = load i32, ptr %10, align 4, !tbaa !4
  %79 = add i32 %78, 1
  store i32 %79, ptr %10, align 4, !tbaa !4
  br label %55, !llvm.loop !27

80:                                               ; preds = %59
  call void @llvm.lifetime.start.p0(i64 8, ptr %12) #9
  %81 = load ptr, ptr %3, align 8, !tbaa !12
  %82 = getelementptr inbounds nuw %struct.proxy_hwm_cfg_t, ptr %81, i32 0, i32 0
  %83 = load ptr, ptr %82, align 8, !tbaa !13
  %84 = call ptr @zmq_socket(ptr noundef %83, i32 noundef 4)
  store ptr %84, ptr %12, align 8, !tbaa !12
  %85 = load ptr, ptr %12, align 8, !tbaa !12
  %86 = load ptr, ptr %3, align 8, !tbaa !12
  %87 = getelementptr inbounds nuw %struct.proxy_hwm_cfg_t, ptr %86, i32 0, i32 4
  %88 = load ptr, ptr %87, align 8, !tbaa !15
  %89 = call i32 @zmq_bind(ptr noundef %85, ptr noundef %88)
  store i32 %89, ptr %4, align 4, !tbaa !4
  br label %90

90:                                               ; preds = %80
  br label %91

91:                                               ; preds = %90
  br label %92

92:                                               ; preds = %91
  %93 = load ptr, ptr %5, align 8, !tbaa !12
  %94 = load ptr, ptr %8, align 8, !tbaa !12
  %95 = load ptr, ptr %12, align 8, !tbaa !12
  %96 = call i32 @zmq_proxy_steerable(ptr noundef %93, ptr noundef %94, ptr noundef null, ptr noundef %95)
  %97 = load ptr, ptr %5, align 8, !tbaa !12
  %98 = call i32 @zmq_close(ptr noundef %97)
  %99 = load ptr, ptr %8, align 8, !tbaa !12
  %100 = call i32 @zmq_close(ptr noundef %99)
  %101 = load ptr, ptr %12, align 8, !tbaa !12
  %102 = call i32 @zmq_close(ptr noundef %101)
  call void @llvm.lifetime.end.p0(i64 8, ptr %12) #9
  call void @llvm.lifetime.end.p0(i64 4, ptr %9) #9
  call void @llvm.lifetime.end.p0(i64 8, ptr %8) #9
  call void @llvm.lifetime.end.p0(i64 8, ptr %5) #9
  call void @llvm.lifetime.end.p0(i64 4, ptr %4) #9
  call void @llvm.lifetime.end.p0(i64 8, ptr %3) #9
  ret void
}