; Function Attrs: mustprogress uwtable
define internal void @_ZL17proxy_thread_mainPv(ptr noundef readonly captures(none) %0) #0 {
  %2 = alloca i32, align 4
  %3 = load ptr, ptr %0, align 8, !tbaa !4
  %4 = tail call ptr @zmq_socket(ptr noundef %3, i32 noundef 10)
  tail call fastcc void @_ZL7set_hwmPv(ptr noundef %4)
  %5 = getelementptr inbounds nuw i8, ptr %0, i64 16
  br label %11

6:                                                ; preds = %16
  %7 = load ptr, ptr %0, align 8, !tbaa !4
  %8 = tail call ptr @zmq_socket(ptr noundef %7, i32 noundef 9)
  call void @llvm.lifetime.start.p0(i64 4, ptr nonnull %2) #11
  store i32 1, ptr %2, align 4, !tbaa !16
  %9 = call i32 @zmq_setsockopt(ptr noundef %8, i32 noundef 69, ptr noundef nonnull %2, i64 noundef 4)
  call fastcc void @_ZL7set_hwmPv(ptr noundef %8)
  %10 = getelementptr inbounds nuw i8, ptr %0, i64 48
  br label %27

11:                                               ; preds = %1, %16
  %indvars.iv = phi i64 [ 0, %1 ], [ %indvars.iv.next, %16 ]
  %12 = getelementptr inbounds nuw [4 x ptr], ptr %5, i64 0, i64 %indvars.iv
  %13 = load ptr, ptr %12, align 8, !tbaa !12
  %.not33 = icmp eq ptr %13, null
  br i1 %.not33, label %16, label %14

14:                                               ; preds = %11
  %15 = tail call i32 @zmq_bind(ptr noundef %4, ptr noundef nonnull %13)
  br label %16

16:                                               ; preds = %14, %11
  %indvars.iv.next = add nuw nsw i64 %indvars.iv, 1
  %exitcond.not = icmp eq i64 %indvars.iv.next, 4
  br i1 %exitcond.not, label %6, label %11, !llvm.loop !17

17:                                               ; preds = %32
  %18 = load ptr, ptr %0, align 8, !tbaa !4
  %19 = call ptr @zmq_socket(ptr noundef %18, i32 noundef 4)
  %20 = getelementptr inbounds nuw i8, ptr %0, i64 80
  %21 = load ptr, ptr %20, align 8, !tbaa !11
  %22 = call i32 @zmq_bind(ptr noundef %19, ptr noundef %21)
  %23 = call i32 @zmq_proxy_steerable(ptr noundef %4, ptr noundef %8, ptr noundef null, ptr noundef %19)
  %24 = call i32 @zmq_close(ptr noundef %4)
  %25 = call i32 @zmq_close(ptr noundef %8)
  %26 = call i32 @zmq_close(ptr noundef %19)
  call void @llvm.lifetime.end.p0(i64 4, ptr nonnull %2) #11
  ret void

27:                                               ; preds = %6, %32
  %indvars.iv37 = phi i64 [ 0, %6 ], [ %indvars.iv.next38, %32 ]
  %28 = getelementptr inbounds nuw [4 x ptr], ptr %10, i64 0, i64 %indvars.iv37
  %29 = load ptr, ptr %28, align 8, !tbaa !12
  %.not = icmp eq ptr %29, null
  br i1 %.not, label %32, label %30

30:                                               ; preds = %27
  %31 = call i32 @zmq_bind(ptr noundef %8, ptr noundef nonnull %29)
  br label %32

32:                                               ; preds = %30, %27
  %indvars.iv.next38 = add nuw nsw i64 %indvars.iv37, 1
  %exitcond40.not = icmp eq i64 %indvars.iv.next38, 4
  br i1 %exitcond40.not, label %17, label %27, !llvm.loop !19
}